target datalayout = "e-m:e-p270:32:32-p271:32:32-p272:64:64-i64:64-i128:128-f80:128-n8:16:32:64-S128"
target triple = "x86_64-unknown-linux-gnu"

%"class.mygame::Vec3" = type { %"class.google::protobuf::Message", float, float, float, %"class.google::protobuf::internal::CachedSize" }
%"class.google::protobuf::Message" = type { %"class.google::protobuf::MessageLite" }
%"class.google::protobuf::MessageLite" = type { ptr, %"class.google::protobuf::internal::InternalMetadata" }
%"class.google::protobuf::internal::InternalMetadata" = type { ptr }
%"class.google::protobuf::internal::CachedSize" = type { %"struct.std::atomic" }
%"struct.std::atomic" = type { %"struct.std::__atomic_base" }
%"struct.std::__atomic_base" = type { i32 }

; Function Attrs: noreturn nounwind uwtable
define linkonce_odr hidden void @__clang_call_terminate(ptr noundef %0) #7 comdat {
  %2 = call ptr @__cxa_begin_catch(ptr %0) #3
  call void @_ZSt9terminatev() #14
  unreachable
}

; Function Attrs: mustprogress nounwind uwtable
define linkonce_odr dso_local noundef i32 @_ZStanSt12memory_orderSt23__memory_order_modifier(i32 noundef %__m, i32 noundef %__mod) #5 comdat {
entry:
  %__m.addr = alloca i32, align 4
  %__mod.addr = alloca i32, align 4
  store i32 %__m, ptr %__m.addr, align 4
  store i32 %__mod, ptr %__mod.addr, align 4
  %0 = load i32, ptr %__m.addr, align 4
  %1 = load i32, ptr %__mod.addr, align 4
  %and = and i32 %0, %1
  ret i32 %and
}

; Function Attrs: mustprogress nounwind uwtable
define linkonce_odr dso_local void @_ZN6google8protobuf8internal10CachedSize3SetEi(ptr noundef nonnull align 4 dereferenceable(4) %this, i32 noundef %size) #5 comdat align 2 personality ptr @__gxx_personality_v0 {
entry:
  %this.addr.i = alloca ptr, align 8
  %__i.addr.i = alloca i32, align 4
  %__m.addr.i = alloca i32, align 4
  %__b.i = alloca i32, align 4
  %.atomictmp.i = alloca i32, align 4
  %this.addr = alloca ptr, align 8
  %size.addr = alloca i32, align 4
  store ptr %this, ptr %this.addr, align 8
  store i32 %size, ptr %size.addr, align 4
  %this1 = load ptr, ptr %this.addr, align 8
  %size_ = getelementptr inbounds %"class.google::protobuf::internal::CachedSize", ptr %this1, i32 0, i32 0
  %0 = load i32, ptr %size.addr, align 4
  store ptr %size_, ptr %this.addr.i, align 8
  store i32 %0, ptr %__i.addr.i, align 4
  store i32 0, ptr %__m.addr.i, align 4
  %this1.i = load ptr, ptr %this.addr.i, align 8
  %1 = load i32, ptr %__m.addr.i, align 4
  %call.i = invoke noundef i32 @_ZStanSt12memory_orderSt23__memory_order_modifier(i32 noundef %1, i32 noundef 65535)
          to label %invoke.cont.i unwind label %terminate.lpad.i

invoke.cont.i:                                    ; preds = %entry
  store i32 %call.i, ptr %__b.i, align 4
  %2 = load i32, ptr %__m.addr.i, align 4
  %3 = load i32, ptr %__i.addr.i, align 4
  store i32 %3, ptr %.atomictmp.i, align 4
  switch i32 %2, label %monotonic.i [
    i32 3, label %release.i
    i32 5, label %seqcst.i
  ]

monotonic.i:                                      ; preds = %invoke.cont.i
  %4 = load i32, ptr %.atomictmp.i, align 4
  store atomic i32 %4, ptr %this1.i monotonic, align 4
  br label %_ZNSt13__atomic_baseIiE5storeEiSt12memory_order.exit

release.i:                                        ; preds = %invoke.cont.i
  %5 = load i32, ptr %.atomictmp.i, align 4
  store atomic i32 %5, ptr %this1.i release, align 4
  br label %_ZNSt13__atomic_baseIiE5storeEiSt12memory_order.exit

seqcst.i:                                         ; preds = %invoke.cont.i
  %6 = load i32, ptr %.atomictmp.i, align 4
  store atomic i32 %6, ptr %this1.i seq_cst, align 4
  br label %_ZNSt13__atomic_baseIiE5storeEiSt12memory_order.exit

terminate.lpad.i:                                 ; preds = %entry
  %7 = landingpad { ptr, i32 }
          catch ptr null
  %8 = extractvalue { ptr, i32 } %7, 0
  call void @__clang_call_terminate(ptr %8) #14
  unreachable

_ZNSt13__atomic_baseIiE5storeEiSt12memory_order.exit: ; preds = %seqcst.i, %release.i, %monotonic.i
  ret void
}

; Function Attrs: mustprogress nounwind uwtable
define linkonce_odr dso_local noundef float @_ZNK6mygame4Vec311_internal_zEv(ptr noundef nonnull align 8 dereferenceable(32) %this) #5 comdat align 2 {
entry:
  %this.addr = alloca ptr, align 8
  store ptr %this, ptr %this.addr, align 8
  %this1 = load ptr, ptr %this.addr, align 8
  %z_ = getelementptr inbounds %"class.mygame::Vec3", ptr %this1, i32 0, i32 3
  %0 = load float, ptr %z_, align 8
  ret float %0
}

; Function Attrs: mustprogress nounwind uwtable
define linkonce_odr dso_local noundef float @_ZNK6mygame4Vec311_internal_yEv(ptr noundef nonnull align 8 dereferenceable(32) %this) #5 comdat align 2 {
entry:
  %this.addr = alloca ptr, align 8
  store ptr %this, ptr %this.addr, align 8
  %this1 = load ptr, ptr %this.addr, align 8
  %y_ = getelementptr inbounds %"class.mygame::Vec3", ptr %this1, i32 0, i32 2
  %0 = load float, ptr %y_, align 4
  ret float %0
}

; Function Attrs: mustprogress nounwind uwtable
define linkonce_odr dso_local noundef float @_ZNK6mygame4Vec311_internal_xEv(ptr noundef nonnull align 8 dereferenceable(32) %this) #5 comdat align 2 {
entry:
  %this.addr = alloca ptr, align 8
  store ptr %this, ptr %this.addr, align 8
  %this1 = load ptr, ptr %this.addr, align 8
  %x_ = getelementptr inbounds %"class.mygame::Vec3", ptr %this1, i32 0, i32 1
  %0 = load float, ptr %x_, align 8
  ret float %0
}

; Function Attrs: mustprogress uwtable
define dso_local void @_ZNK6mygame4Vec313SetCachedSizeEi(ptr noundef nonnull align 8 dereferenceable(32) %this, i32 noundef %size) unnamed_addr #4 align 2 {
entry:
  %this.addr = alloca ptr, align 8
  %size.addr = alloca i32, align 4
  store ptr %this, ptr %this.addr, align 8
  store i32 %size, ptr %size.addr, align 4
  %this1 = load ptr, ptr %this.addr, align 8
  %_cached_size_ = getelementptr inbounds %"class.mygame::Vec3", ptr %this1, i32 0, i32 4
  %0 = load i32, ptr %size.addr, align 4
  call void @_ZN6google8protobuf8internal10CachedSize3SetEi(ptr noundef nonnull align 4 dereferenceable(4) %_cached_size_, i32 noundef %0)
  ret void
}

; Function Attrs: mustprogress nounwind uwtable
define linkonce_odr dso_local noundef i32 @_ZN6google8protobuf8internal12ToCachedSizeEm(i64 noundef %size) #5 comdat {
entry:
  %size.addr = alloca i64, align 8
  store i64 %size, ptr %size.addr, align 8
  %0 = load i64, ptr %size.addr, align 8
  %conv = trunc i64 %0 to i32
  ret i32 %conv
}

; Function Attrs: mustprogress uwtable
define linkonce_odr dso_local noundef float @_ZNK6mygame4Vec31zEv(ptr noundef nonnull align 8 dereferenceable(32) %this) #4 comdat align 2 {
entry:
  %this.addr = alloca ptr, align 8
  store ptr %this, ptr %this.addr, align 8
  %this1 = load ptr, ptr %this.addr, align 8
  %call = call noundef float @_ZNK6mygame4Vec311_internal_zEv(ptr noundef nonnull align 8 dereferenceable(32) %this1)
  ret float %call
}

; Function Attrs: mustprogress uwtable
define linkonce_odr dso_local noundef float @_ZNK6mygame4Vec31yEv(ptr noundef nonnull align 8 dereferenceable(32) %this) #4 comdat align 2 {
entry:
  %this.addr = alloca ptr, align 8
  store ptr %this, ptr %this.addr, align 8
  %this1 = load ptr, ptr %this.addr, align 8
  %call = call noundef float @_ZNK6mygame4Vec311_internal_yEv(ptr noundef nonnull align 8 dereferenceable(32) %this1)
  ret float %call
}

; Function Attrs: mustprogress uwtable
define linkonce_odr dso_local noundef float @_ZNK6mygame4Vec31xEv(ptr noundef nonnull align 8 dereferenceable(32) %this) #4 comdat align 2 {
entry:
  %this.addr = alloca ptr, align 8
  store ptr %this, ptr %this.addr, align 8
  %this1 = load ptr, ptr %this.addr, align 8
  %call = call noundef float @_ZNK6mygame4Vec311_internal_xEv(ptr noundef nonnull align 8 dereferenceable(32) %this1)
  ret float %call
}

; Function Attrs: mustprogress uwtable
define dso_local noundef i64 @_ZNK6mygame4Vec312ByteSizeLongEv(ptr noundef nonnull align 8 dereferenceable(32) %this) unnamed_addr #4 align 2 {
entry:
  %this.addr.i26 = alloca ptr, align 8
  %this.addr.i = alloca ptr, align 8
  %retval = alloca i64, align 8
  %this.addr = alloca ptr, align 8
  %total_size = alloca i64, align 8
  %cached_has_bits = alloca i32, align 4
  %cached_size = alloca i32, align 4
  store ptr %this, ptr %this.addr, align 8
  %this1 = load ptr, ptr %this.addr, align 8
  store i64 0, ptr %total_size, align 8
  store i32 0, ptr %cached_has_bits, align 4
  %call = call noundef float @_ZNK6mygame4Vec31xEv(ptr noundef nonnull align 8 dereferenceable(32) %this1)
  %cmp = fcmp ole float %call, 0.000000e+00
  br i1 %cmp, label %land.lhs.true, label %if.then

land.lhs.true:                                    ; preds = %entry
  %call2 = call noundef float @_ZNK6mygame4Vec31xEv(ptr noundef nonnull align 8 dereferenceable(32) %this1)
  %cmp3 = fcmp oge float %call2, 0.000000e+00
  br i1 %cmp3, label %if.end, label %if.then

if.then:                                          ; preds = %land.lhs.true, %entry
  %0 = load i64, ptr %total_size, align 8
  %add = add i64 %0, 5
  store i64 %add, ptr %total_size, align 8
  br label %if.end

if.end:                                           ; preds = %if.then, %land.lhs.true
  %call4 = call noundef float @_ZNK6mygame4Vec31yEv(ptr noundef nonnull align 8 dereferenceable(32) %this1)
  %cmp5 = fcmp ole float %call4, 0.000000e+00
  br i1 %cmp5, label %land.lhs.true6, label %if.then9

land.lhs.true6:                                   ; preds = %if.end
  %call7 = call noundef float @_ZNK6mygame4Vec31yEv(ptr noundef nonnull align 8 dereferenceable(32) %this1)
  %cmp8 = fcmp oge float %call7, 0.000000e+00
  br i1 %cmp8, label %if.end11, label %if.then9

if.then9:                                         ; preds = %land.lhs.true6, %if.end
  %1 = load i64, ptr %total_size, align 8
  %add10 = add i64 %1, 5
  store i64 %add10, ptr %total_size, align 8
  br label %if.end11

if.end11:                                         ; preds = %if.then9, %land.lhs.true6
  %call12 = call noundef float @_ZNK6mygame4Vec31zEv(ptr noundef nonnull align 8 dereferenceable(32) %this1)
  %cmp13 = fcmp ole float %call12, 0.000000e+00
  br i1 %cmp13, label %land.lhs.true14, label %if.then17

land.lhs.true14:                                  ; preds = %if.end11
  %call15 = call noundef float @_ZNK6mygame4Vec31zEv(ptr noundef nonnull align 8 dereferenceable(32) %this1)
  %cmp16 = fcmp oge float %call15, 0.000000e+00
  br i1 %cmp16, label %if.end19, label %if.then17

if.then17:                                        ; preds = %land.lhs.true14, %if.end11
  %2 = load i64, ptr %total_size, align 8
  %add18 = add i64 %2, 5
  store i64 %add18, ptr %total_size, align 8
  br label %if.end19

if.end19:                                         ; preds = %if.then17, %land.lhs.true14
  %_internal_metadata_ = getelementptr inbounds %"class.google::protobuf::MessageLite", ptr %this1, i32 0, i32 1
  store ptr %_internal_metadata_, ptr %this.addr.i, align 8
  %this1.i = load ptr, ptr %this.addr.i, align 8
  store ptr %this1.i, ptr %this.addr.i26, align 8
  %this1.i27 = load ptr, ptr %this.addr.i26, align 8
  %3 = load ptr, ptr %this1.i27, align 8
  %4 = ptrtoint ptr %3 to i64
  %and.i = and i64 %4, 1
  %conv.i = trunc i64 %and.i to i32
  %cmp.i = icmp eq i32 %conv.i, 1
  br i1 %cmp.i, label %if.then21, label %if.end24

if.then21:                                        ; preds = %if.end19
  %_internal_metadata_22 = getelementptr inbounds %"class.google::protobuf::MessageLite", ptr %this1, i32 0, i32 1
  %5 = load i64, ptr %total_size, align 8
  %_cached_size_ = getelementptr inbounds %"class.mygame::Vec3", ptr %this1, i32 0, i32 4
  %call23 = call noundef i64 @_ZN6google8protobuf8internal24ComputeUnknownFieldsSizeERKNS1_16InternalMetadataEmPNS1_10CachedSizeE(ptr noundef nonnull align 8 dereferenceable(8) %_internal_metadata_22, i64 noundef %5, ptr noundef %_cached_size_)
  store i64 %call23, ptr %retval, align 8
  br label %return

if.end24:                                         ; preds = %if.end19
  %6 = load i64, ptr %total_size, align 8
  %call25 = call noundef i32 @_ZN6google8protobuf8internal12ToCachedSizeEm(i64 noundef %6)
  store i32 %call25, ptr %cached_size, align 4
  %7 = load i32, ptr %cached_size, align 4
  call void @_ZNK6mygame4Vec313SetCachedSizeEi(ptr noundef nonnull align 8 dereferenceable(32) %this1, i32 noundef %7)
  %8 = load i64, ptr %total_size, align 8
  store i64 %8, ptr %retval, align 8
  br label %return

return:                                           ; preds = %if.end24, %if.then21
  %9 = load i64, ptr %retval, align 8
  ret i64 %9
}