; Function Attrs: mustprogress uwtable
define dso_local noundef i64 @_ZNK6mygame4Vec312ByteSizeLongEv(ptr noundef nonnull align 8 dereferenceable(32) %this) unnamed_addr #3 align 2 personality ptr @__gxx_personality_v0 {
entry:
  %x_.i.i = getelementptr inbounds i8, ptr %this, i64 16
  %0 = load float, ptr %x_.i.i, align 8
  %or.cond = fcmp une float %0, 0.000000e+00
  %total_size.0 = select i1 %or.cond, i64 5, i64 0
  %y_.i.i = getelementptr inbounds i8, ptr %this, i64 20
  %1 = load float, ptr %y_.i.i, align 4
  %or.cond10 = fcmp une float %1, 0.000000e+00
  %add10 = add nuw nsw i64 %total_size.0, 5
  %total_size.1 = select i1 %or.cond10, i64 %add10, i64 %total_size.0
  %z_.i.i = getelementptr inbounds i8, ptr %this, i64 24
  %2 = load float, ptr %z_.i.i, align 8
  %or.cond11 = fcmp une float %2, 0.000000e+00
  %add18 = add nuw nsw i64 %total_size.1, 5
  %total_size.2 = select i1 %or.cond11, i64 %add18, i64 %total_size.1
  %_internal_metadata_ = getelementptr inbounds i8, ptr %this, i64 8
  %3 = load ptr, ptr %_internal_metadata_, align 8
  %4 = ptrtoint ptr %3 to i64
  %conv.i6 = and i64 %4, 1
  %cmp.i.not = icmp eq i64 %conv.i6, 0
  br i1 %cmp.i.not, label %if.end24, label %if.then21

if.then21:                                        ; preds = %entry
  %_cached_size_ = getelementptr inbounds i8, ptr %this, i64 28
  %call23 = tail call noundef i64 @_ZN6google8protobuf8internal24ComputeUnknownFieldsSizeERKNS1_16InternalMetadataEmPNS1_10CachedSizeE(ptr noundef nonnull align 8 dereferenceable(8) %_internal_metadata_, i64 noundef %total_size.2, ptr noundef nonnull %_cached_size_)
  br label %return

if.end24:                                         ; preds = %entry
  %conv.i = trunc i64 %total_size.2 to i32
  %_cached_size_.i = getelementptr inbounds i8, ptr %this, i64 28
  store atomic i32 %conv.i, ptr %_cached_size_.i monotonic, align 4
  br label %return

return:                                           ; preds = %if.end24, %if.then21
  %retval.0 = phi i64 [ %call23, %if.then21 ], [ %total_size.2, %if.end24 ]
  ret i64 %retval.0
}